target datalayout = "e-m:e-p270:32:32-p271:32:32-p272:64:64-i64:64-i128:128-f80:128-n8:16:32:64-S128"
target triple = "x86_64-pc-linux-gnu"

%"class.arrow::Status" = type { ptr }

@.str.26 = private unnamed_addr constant [23 x i8] c"Invalid signal number \00", align 1
@.str.27 = private unnamed_addr constant [23 x i8] c"Failed to raise signal\00", align 1

; Function Attrs: mustprogress nounwind uwtable
define linkonce_odr void @_ZN5arrow6StatusC2Ev(ptr noundef nonnull align 8 dereferenceable(8) %0) unnamed_addr #6 comdat align 2 {
  %2 = alloca ptr, align 8
  store ptr %0, ptr %2, align 8, !tbaa !43
  %3 = load ptr, ptr %2, align 8
  %4 = getelementptr inbounds nuw %"class.arrow::Status", ptr %3, i32 0, i32 0
  store ptr null, ptr %4, align 8, !tbaa !69
  ret void
}

; Function Attrs: mustprogress uwtable
define linkonce_odr void @_ZN5arrow8internal16IOErrorFromErrnoIJRA23_KcEEENS_6StatusEiDpOT_(ptr dead_on_unwind noalias writable sret(%"class.arrow::Status") align 8 %0, i32 noundef %1, ptr noundef nonnull align 1 dereferenceable(23) %2) #4 comdat {
  %4 = alloca ptr, align 8
  %5 = alloca i32, align 4
  %6 = alloca ptr, align 8
  store ptr %0, ptr %4, align 8
  store i32 %1, ptr %5, align 4, !tbaa !3
  store ptr %2, ptr %6, align 8, !tbaa !12
  %7 = load i32, ptr %5, align 4, !tbaa !3
  %8 = load ptr, ptr %6, align 8, !tbaa !12
  call void @_ZN5arrow8internal15StatusFromErrnoIJRA23_KcEEENS_6StatusEiNS_10StatusCodeEDpOT_(ptr dead_on_unwind writable sret(%"class.arrow::Status") align 8 %0, i32 noundef %7, i8 noundef signext 5, ptr noundef nonnull align 1 dereferenceable(23) %8)
  ret void
}

; Function Attrs: mustprogress uwtable
define linkonce_odr void @_ZN5arrow6Status7InvalidIJRA23_KcRiEEES0_DpOT_(ptr dead_on_unwind noalias writable sret(%"class.arrow::Status") align 8 %0, ptr noundef nonnull align 1 dereferenceable(23) %1, ptr noundef nonnull align 4 dereferenceable(4) %2) #4 comdat align 2 {
  %4 = alloca ptr, align 8
  %5 = alloca ptr, align 8
  %6 = alloca ptr, align 8
  store ptr %0, ptr %4, align 8
  store ptr %1, ptr %5, align 8, !tbaa !12
  store ptr %2, ptr %6, align 8, !tbaa !20
  %7 = load ptr, ptr %5, align 8, !tbaa !12
  %8 = load ptr, ptr %6, align 8, !tbaa !20
  call void @_ZN5arrow6Status8FromArgsIJRA23_KcRiEEES0_NS_10StatusCodeEDpOT_(ptr dead_on_unwind writable sret(%"class.arrow::Status") align 8 %0, i8 noundef signext 4, ptr noundef nonnull align 1 dereferenceable(23) %7, ptr noundef nonnull align 4 dereferenceable(4) %8)
  ret void
}

; Function Attrs: mustprogress nounwind uwtable
define linkonce_odr void @_ZN5arrow6Status2OKEv(ptr dead_on_unwind noalias writable sret(%"class.arrow::Status") align 8 %0) #6 comdat align 2 {
  %2 = alloca ptr, align 8
  store ptr %0, ptr %2, align 8
  call void @_ZN5arrow6StatusC2Ev(ptr noundef nonnull align 8 dereferenceable(8) %0) #3
  ret void
}

; Function Attrs: mustprogress uwtable
define void @_ZN5arrow8internal10SendSignalEi(ptr dead_on_unwind noalias writable sret(%"class.arrow::Status") align 8 %0, i32 noundef %1) #4 {
  %3 = alloca ptr, align 8
  %4 = alloca i32, align 4
  store ptr %0, ptr %3, align 8
  store i32 %1, ptr %4, align 4, !tbaa !3
  %5 = load i32, ptr %4, align 4, !tbaa !3
  %6 = call i32 @raise(i32 noundef %5) #3
  %7 = icmp eq i32 %6, 0
  br i1 %7, label %8, label %9

8:                                                ; preds = %2
  call void @_ZN5arrow6Status2OKEv(ptr dead_on_unwind writable sret(%"class.arrow::Status") align 8 %0)
  br label %17

9:                                                ; preds = %2
  %10 = call ptr @__errno_location() #28
  %11 = load i32, ptr %10, align 4, !tbaa !3
  %12 = icmp eq i32 %11, 22
  br i1 %12, label %13, label %14

13:                                               ; preds = %9
  call void @_ZN5arrow6Status7InvalidIJRA23_KcRiEEES0_DpOT_(ptr dead_on_unwind writable sret(%"class.arrow::Status") align 8 %0, ptr noundef nonnull align 1 dereferenceable(23) @.str.26, ptr noundef nonnull align 4 dereferenceable(4) %4)
  br label %17

14:                                               ; preds = %9
  %15 = call ptr @__errno_location() #28
  %16 = load i32, ptr %15, align 4, !tbaa !3
  call void @_ZN5arrow8internal16IOErrorFromErrnoIJRA23_KcEEENS_6StatusEiDpOT_(ptr dead_on_unwind writable sret(%"class.arrow::Status") align 8 %0, i32 noundef %16, ptr noundef nonnull align 1 dereferenceable(23) @.str.27)
  br label %17

17:                                               ; preds = %14, %13, %8
  ret void
}