; Function Attrs: mustprogress uwtable
define void @_ZN5arrow8internal10SendSignalEi(ptr dead_on_unwind noalias writable sret(%"class.arrow::Status") align 8 %0, i32 noundef %1) local_unnamed_addr #3 {
  %3 = alloca i32, align 4
  store i32 %1, ptr %3, align 4, !tbaa !38
  %4 = tail call i32 @raise(i32 noundef %1) #38
  %5 = icmp eq i32 %4, 0
  br i1 %5, label %6, label %7

6:                                                ; preds = %2
  store ptr null, ptr %0, align 8, !tbaa !89, !alias.scope !657
  br label %13

7:                                                ; preds = %2
  %8 = tail call ptr @__errno_location() #42
  %9 = load i32, ptr %8, align 4, !tbaa !38
  %10 = icmp eq i32 %9, 22
  br i1 %10, label %11, label %12

11:                                               ; preds = %7
  call void @_ZN5arrow6Status8FromArgsIJRA23_KcRiEEES0_NS_10StatusCodeEDpOT_(ptr dead_on_unwind writable sret(%"class.arrow::Status") align 8 %0, i8 noundef signext 4, ptr noundef nonnull align 1 dereferenceable(23) @.str.26, ptr noundef nonnull align 4 dereferenceable(4) %3)
  br label %13

12:                                               ; preds = %7
  tail call void @_ZN5arrow8internal15StatusFromErrnoIJRA23_KcEEENS_6StatusEiNS_10StatusCodeEDpOT_(ptr dead_on_unwind writable sret(%"class.arrow::Status") align 8 %0, i32 noundef %9, i8 noundef signext 5, ptr noundef nonnull align 1 dereferenceable(23) @.str.27)
  br label %13

13:                                               ; preds = %12, %11, %6
  ret void
}